target datalayout = "e-m:e-p270:32:32-p271:32:32-p272:64:64-i64:64-i128:128-f80:128-n8:16:32:64-S128"
target triple = "x86_64-unknown-linux-gnu"

%struct.BlockLimits = type { i32, i64, i32, i64, i32, i32, i32, i64, i32, i64, i64, i32, i8, i32, i32, i32, i32, i32, i32, i32 }
%struct.BlockDriverState = type { i32, i8, i8, i8, i8, i8, ptr, ptr, ptr, %struct.anon.1, i8, [4096 x i8], [4096 x i8], [4096 x i8], [16 x i8], ptr, [4096 x i8], %struct.BlockLimits, i32, i32, i32, i32, [32 x i8], %union.anon, %union.anon.2, %union.anon.3, i32, [16 x %struct.anon.4], ptr, %struct.anon.5, ptr, ptr, %struct.anon.6, ptr, ptr, i32, ptr, i64, i64, %struct.QemuMutex, %struct.anon.7, %struct.Stat64, i32, i32, i32, i32, i32, i32, %struct.QemuMutex, %struct.anon.8, %struct.CoQueue, i8, i32, i8, %struct.CoMutex, ptr, ptr }
%struct.anon.1 = type { ptr }
%union.anon = type { %struct.QTailQLink }
%struct.QTailQLink = type { ptr, ptr }
%union.anon.2 = type { %struct.QTailQLink }
%union.anon.3 = type { %struct.QTailQLink }
%struct.anon.4 = type { ptr }
%struct.anon.5 = type { ptr }
%struct.anon.6 = type { ptr }
%struct.anon.7 = type { ptr }
%struct.Stat64 = type { i64 }
%struct.QemuMutex = type { %union.pthread_mutex_t, i8 }
%union.pthread_mutex_t = type { %struct.__pthread_mutex_s }
%struct.__pthread_mutex_s = type { i32, i32, i32, i32, i32, i16, i16, %struct.__pthread_internal_list }
%struct.__pthread_internal_list = type { ptr, ptr }
%struct.anon.8 = type { ptr }
%struct.CoQueue = type { %struct.anon.9 }
%struct.anon.9 = type { ptr, ptr }
%struct.CoMutex = type { i32, ptr, %struct.anon.10, %struct.anon.10, i32, i32, ptr }
%struct.anon.10 = type { ptr }

@.str = private unnamed_addr constant [22 x i8] c"qemu_in_main_thread()\00", align 1
@.str.1 = private unnamed_addr constant [19 x i8] c"../qemu/block/io.c\00", align 1
@__PRETTY_FUNCTION__.bdrv_drain_all_end_quiesce = private unnamed_addr constant [52 x i8] c"void bdrv_drain_all_end_quiesce(BlockDriverState *)\00", align 1
@__func__.bdrv_drain_all_end_quiesce = private unnamed_addr constant [27 x i8] c"bdrv_drain_all_end_quiesce\00", align 1
@.str.10 = private unnamed_addr constant [24 x i8] c"bs->quiesce_counter > 0\00", align 1
@.str.11 = private unnamed_addr constant [12 x i8] c"!bs->refcnt\00", align 1

; Function Attrs: nounwind sspstrong uwtable
define dso_local void @bdrv_drain_all_end_quiesce(ptr noundef %bs) #0 {
entry:
  %bs.addr = alloca ptr, align 8
  store ptr %bs, ptr %bs.addr, align 8
  br label %do.body

do.body:                                          ; preds = %entry
  %call = call zeroext i1 @qemu_in_main_thread()
  br i1 %call, label %if.then, label %if.else

if.then:                                          ; preds = %do.body
  br label %if.end

if.else:                                          ; preds = %do.body
  call void @__assert_fail(ptr noundef @.str, ptr noundef @.str.1, i32 noundef 566, ptr noundef @__PRETTY_FUNCTION__.bdrv_drain_all_end_quiesce) #10
  unreachable

if.end:                                           ; preds = %if.then
  br label %do.end

do.end:                                           ; preds = %if.end
  br label %do.body1

do.body1:                                         ; preds = %do.end
  %0 = load ptr, ptr %bs.addr, align 8
  %quiesce_counter = getelementptr inbounds %struct.BlockDriverState, ptr %0, i32 0, i32 46
  %1 = load i32, ptr %quiesce_counter, align 8
  %cmp = icmp sgt i32 %1, 0
  br i1 %cmp, label %if.then2, label %if.else3

if.then2:                                         ; preds = %do.body1
  br label %if.end4

if.else3:                                         ; preds = %do.body1
  call void @g_assertion_message_expr(ptr noundef null, ptr noundef @.str.1, i32 noundef 568, ptr noundef @__func__.bdrv_drain_all_end_quiesce, ptr noundef @.str.10) #13
  unreachable

if.end4:                                          ; preds = %if.then2
  br label %do.end5

do.end5:                                          ; preds = %if.end4
  br label %do.body6

do.body6:                                         ; preds = %do.end5
  %2 = load ptr, ptr %bs.addr, align 8
  %refcnt = getelementptr inbounds %struct.BlockDriverState, ptr %2, i32 0, i32 26
  %3 = load i32, ptr %refcnt, align 8
  %tobool = icmp ne i32 %3, 0
  br i1 %tobool, label %if.else8, label %if.then7

if.then7:                                         ; preds = %do.body6
  br label %if.end9

if.else8:                                         ; preds = %do.body6
  call void @g_assertion_message_expr(ptr noundef null, ptr noundef @.str.1, i32 noundef 569, ptr noundef @__func__.bdrv_drain_all_end_quiesce, ptr noundef @.str.11) #13
  unreachable

if.end9:                                          ; preds = %if.then7
  br label %do.end10

do.end10:                                         ; preds = %if.end9
  br label %while.cond

while.cond:                                       ; preds = %while.body, %do.end10
  %4 = load ptr, ptr %bs.addr, align 8
  %quiesce_counter11 = getelementptr inbounds %struct.BlockDriverState, ptr %4, i32 0, i32 46
  %5 = load i32, ptr %quiesce_counter11, align 8
  %tobool12 = icmp ne i32 %5, 0
  br i1 %tobool12, label %while.body, label %while.end

while.body:                                       ; preds = %while.cond
  %6 = load ptr, ptr %bs.addr, align 8
  call void @bdrv_do_drained_end(ptr noundef %6, ptr noundef null)
  br label %while.cond, !llvm.loop !16

while.end:                                        ; preds = %while.cond
  ret void
}