; Function Attrs: nounwind sspstrong uwtable
define dso_local void @bdrv_drain_all_end_quiesce(ptr noundef %bs) local_unnamed_addr #0 {
entry:
  %call = tail call zeroext i1 @qemu_in_main_thread() #15
  br i1 %call, label %do.body1, label %if.else

if.else:                                          ; preds = %entry
  tail call void @__assert_fail(ptr noundef nonnull @.str, ptr noundef nonnull @.str.1, i32 noundef 566, ptr noundef nonnull @__PRETTY_FUNCTION__.bdrv_drain_all_end_quiesce) #16
  unreachable

do.body1:                                         ; preds = %entry
  %quiesce_counter = getelementptr inbounds nuw i8, ptr %bs, i64 16984
  %0 = load i32, ptr %quiesce_counter, align 8
  %cmp = icmp sgt i32 %0, 0
  br i1 %cmp, label %do.body6, label %if.else3

if.else3:                                         ; preds = %do.body1
  tail call void @g_assertion_message_expr(ptr noundef null, ptr noundef nonnull @.str.1, i32 noundef 568, ptr noundef nonnull @__func__.bdrv_drain_all_end_quiesce, ptr noundef nonnull @.str.10) #16
  unreachable

do.body6:                                         ; preds = %do.body1
  %refcnt = getelementptr inbounds nuw i8, ptr %bs, i64 16680
  %1 = load i32, ptr %refcnt, align 8
  %tobool.not = icmp eq i32 %1, 0
  br i1 %tobool.not, label %while.body, label %if.else8

if.else8:                                         ; preds = %do.body6
  tail call void @g_assertion_message_expr(ptr noundef null, ptr noundef nonnull @.str.1, i32 noundef 569, ptr noundef nonnull @__func__.bdrv_drain_all_end_quiesce, ptr noundef nonnull @.str.11) #16
  unreachable

while.body:                                       ; preds = %do.body6, %while.body
  tail call fastcc void @bdrv_do_drained_end(ptr noundef nonnull %bs, ptr noundef null)
  %2 = load i32, ptr %quiesce_counter, align 8
  %tobool12.not = icmp eq i32 %2, 0
  br i1 %tobool12.not, label %while.end, label %while.body, !llvm.loop !17

while.end:                                        ; preds = %while.body
  ret void
}